target datalayout = "e-m:e-p270:32:32-p271:32:32-p272:64:64-i64:64-i128:128-f80:128-n8:16:32:64-S128"
target triple = "x86_64-pc-linux-gnu"

%struct.AVFormatContext = type { ptr, ptr, ptr, ptr, ptr, i32, i32, ptr, i32, ptr, i32, ptr, ptr, i64, i64, i64, i32, i32, i32, i64, i64, ptr, i32, i32, ptr, i32, i32, i32, i32, ptr, i64, i32, i32, %struct.AVIOInterruptCB, i32, i32, i32, i32, i64, i32, i32, i32, i32, i32, i32, i32, i32, i32, i32, i32, i32, i64, i32, i32, i32, i32, i32, ptr, ptr, ptr, ptr, i32, ptr, ptr, ptr, ptr, i32, ptr, ptr, i64, ptr, ptr, ptr, i64 }
%struct.AVIOInterruptCB = type { ptr, ptr }
%struct.AVStream = type { ptr, i32, i32, ptr, ptr, %struct.AVRational, i64, i64, i64, i32, i32, %struct.AVRational, ptr, %struct.AVRational, %struct.AVPacket, i32, %struct.AVRational, i32 }
%struct.AVPacket = type { ptr, i64, i64, ptr, i32, i32, i32, ptr, i32, i64, i64, ptr, ptr, %struct.AVRational }
%struct.AVRational = type { i32, i32 }
%struct.FFStream = type { %struct.AVStream, ptr, i32, ptr, i32, ptr, i32, %struct.anon, i32, i32, %struct.FFFrac, ptr, ptr, i32, i32, i64, i64, i32, i32, i32, i64, i64, i64, i32, i64, i64, i64, i32, i32, [17 x i64], [17 x i8], [17 x i64], i64, i8, i8, %struct.AVRational, %struct.AVProbeData, ptr, i64, i32, i32, i32, ptr, i32, i32, i64, i64, ptr, %struct.AVRational }
%struct.anon = type { ptr, i32 }
%struct.FFFrac = type { i64, i64, i64 }
%struct.AVProbeData = type { ptr, ptr, i32, ptr }
%struct.AVIndexEntry = type { i64, i64, i32, i32 }

; Function Attrs: alwaysinline nounwind uwtable
define internal ptr @ffstream(ptr noundef %0) #2 {
  %2 = alloca ptr, align 8
  store ptr %0, ptr %2, align 8, !tbaa !9
  %3 = load ptr, ptr %2, align 8, !tbaa !9
  ret ptr %3
}

; Function Attrs: nounwind uwtable
define void @ff_reduce_index(ptr noundef %0, i32 noundef %1) #0 {
  %3 = alloca ptr, align 8
  %4 = alloca i32, align 4
  %5 = alloca ptr, align 8
  %6 = alloca ptr, align 8
  %7 = alloca i32, align 4
  %8 = alloca i32, align 4
  store ptr %0, ptr %3, align 8, !tbaa !4
  store i32 %1, ptr %4, align 4, !tbaa !13
  call void @llvm.lifetime.start.p0(i64 8, ptr %5) #11
  %9 = load ptr, ptr %3, align 8, !tbaa !4
  %10 = getelementptr inbounds nuw %struct.AVFormatContext, ptr %9, i32 0, i32 7
  %11 = load ptr, ptr %10, align 8, !tbaa !30
  %12 = load i32, ptr %4, align 4, !tbaa !13
  %13 = sext i32 %12 to i64
  %14 = getelementptr inbounds ptr, ptr %11, i64 %13
  %15 = load ptr, ptr %14, align 8, !tbaa !9
  store ptr %15, ptr %5, align 8, !tbaa !9
  call void @llvm.lifetime.start.p0(i64 8, ptr %6) #11
  %16 = load ptr, ptr %5, align 8, !tbaa !9
  %17 = call ptr @ffstream(ptr noundef %16)
  store ptr %17, ptr %6, align 8, !tbaa !31
  call void @llvm.lifetime.start.p0(i64 4, ptr %7) #11
  %18 = load ptr, ptr %3, align 8, !tbaa !4
  %19 = getelementptr inbounds nuw %struct.AVFormatContext, ptr %18, i32 0, i32 36
  %20 = load i32, ptr %19, align 8, !tbaa !55
  %21 = zext i32 %20 to i64
  %22 = udiv i64 %21, 24
  %23 = trunc i64 %22 to i32
  store i32 %23, ptr %7, align 4, !tbaa !13
  %24 = load ptr, ptr %6, align 8, !tbaa !31
  %25 = getelementptr inbounds nuw %struct.FFStream, ptr %24, i32 0, i32 13
  %26 = load i32, ptr %25, align 8, !tbaa !56
  %27 = load i32, ptr %7, align 4, !tbaa !13
  %28 = icmp uge i32 %26, %27
  br i1 %28, label %29, label %58

29:                                               ; preds = %2
  call void @llvm.lifetime.start.p0(i64 4, ptr %8) #11
  store i32 0, ptr %8, align 4, !tbaa !13
  br label %30

30:                                               ; preds = %51, %29
  %31 = load i32, ptr %8, align 4, !tbaa !13
  %32 = mul nsw i32 2, %31
  %33 = load ptr, ptr %6, align 8, !tbaa !31
  %34 = getelementptr inbounds nuw %struct.FFStream, ptr %33, i32 0, i32 13
  %35 = load i32, ptr %34, align 8, !tbaa !56
  %36 = icmp slt i32 %32, %35
  br i1 %36, label %37, label %54

37:                                               ; preds = %30
  %38 = load ptr, ptr %6, align 8, !tbaa !31
  %39 = getelementptr inbounds nuw %struct.FFStream, ptr %38, i32 0, i32 12
  %40 = load ptr, ptr %39, align 8, !tbaa !57
  %41 = load i32, ptr %8, align 4, !tbaa !13
  %42 = sext i32 %41 to i64
  %43 = getelementptr inbounds %struct.AVIndexEntry, ptr %40, i64 %42
  %44 = load ptr, ptr %6, align 8, !tbaa !31
  %45 = getelementptr inbounds nuw %struct.FFStream, ptr %44, i32 0, i32 12
  %46 = load ptr, ptr %45, align 8, !tbaa !57
  %47 = load i32, ptr %8, align 4, !tbaa !13
  %48 = mul nsw i32 2, %47
  %49 = sext i32 %48 to i64
  %50 = getelementptr inbounds %struct.AVIndexEntry, ptr %46, i64 %49
  call void @llvm.memcpy.p0.p0.i64(ptr align 8 %43, ptr align 8 %50, i64 24, i1 false), !tbaa.struct !58
  br label %51

51:                                               ; preds = %37
  %52 = load i32, ptr %8, align 4, !tbaa !13
  %53 = add nsw i32 %52, 1
  store i32 %53, ptr %8, align 4, !tbaa !13
  br label %30, !llvm.loop !60

54:                                               ; preds = %30
  %55 = load i32, ptr %8, align 4, !tbaa !13
  %56 = load ptr, ptr %6, align 8, !tbaa !31
  %57 = getelementptr inbounds nuw %struct.FFStream, ptr %56, i32 0, i32 13
  store i32 %55, ptr %57, align 8, !tbaa !56
  call void @llvm.lifetime.end.p0(i64 4, ptr %8) #11
  br label %58

58:                                               ; preds = %54, %2
  call void @llvm.lifetime.end.p0(i64 4, ptr %7) #11
  call void @llvm.lifetime.end.p0(i64 8, ptr %6) #11
  call void @llvm.lifetime.end.p0(i64 8, ptr %5) #11
  ret void
}