; Function Attrs: nofree norecurse nosync nounwind memory(readwrite, inaccessiblemem: none) uwtable
define void @ff_reduce_index(ptr noundef readonly captures(none) %0, i32 noundef %1) local_unnamed_addr #3 {
  %3 = getelementptr inbounds nuw i8, ptr %0, i64 48
  %4 = load ptr, ptr %3, align 8, !tbaa !24
  %5 = sext i32 %1 to i64
  %6 = getelementptr inbounds ptr, ptr %4, i64 %5
  %7 = load ptr, ptr %6, align 8, !tbaa !33
  %8 = getelementptr inbounds nuw i8, ptr %0, i64 240
  %9 = load i32, ptr %8, align 8, !tbaa !50
  %10 = udiv i32 %9, 24
  %11 = getelementptr inbounds nuw i8, ptr %7, i64 328
  %12 = load i32, ptr %11, align 8, !tbaa !51
  %.not = icmp ult i32 %12, %10
  br i1 %.not, label %24, label %.preheader

.preheader:                                       ; preds = %2
  %13 = icmp sgt i32 %12, 0
  br i1 %13, label %.lr.ph, label %._crit_edge

.lr.ph:                                           ; preds = %.preheader
  %14 = getelementptr inbounds nuw i8, ptr %7, i64 320
  br label %15

15:                                               ; preds = %.lr.ph, %15
  %indvars.iv16 = phi i64 [ 0, %.lr.ph ], [ %indvars.iv.next17, %15 ]
  %indvars.iv = phi i64 [ 0, %.lr.ph ], [ %indvars.iv.next, %15 ]
  %16 = load ptr, ptr %14, align 8, !tbaa !52
  %17 = getelementptr inbounds nuw %struct.AVIndexEntry, ptr %16, i64 %indvars.iv16
  %18 = getelementptr inbounds nuw %struct.AVIndexEntry, ptr %16, i64 %indvars.iv
  tail call void @llvm.memcpy.p0.p0.i64(ptr noundef nonnull align 8 dereferenceable(24) %17, ptr noundef nonnull align 8 dereferenceable(24) %18, i64 24, i1 false), !tbaa.struct !53
  %indvars.iv.next17 = add nuw nsw i64 %indvars.iv16, 1
  %19 = shl nuw nsw i64 %indvars.iv.next17, 1
  %20 = load i32, ptr %11, align 8, !tbaa !51
  %21 = sext i32 %20 to i64
  %22 = icmp slt i64 %19, %21
  %indvars.iv.next = add nuw nsw i64 %indvars.iv, 2
  br i1 %22, label %15, label %._crit_edge.loopexit, !llvm.loop !57

._crit_edge.loopexit:                             ; preds = %15
  %23 = trunc nuw nsw i64 %indvars.iv.next17 to i32
  br label %._crit_edge

._crit_edge:                                      ; preds = %._crit_edge.loopexit, %.preheader
  %.0.lcssa = phi i32 [ 0, %.preheader ], [ %23, %._crit_edge.loopexit ]
  store i32 %.0.lcssa, ptr %11, align 8, !tbaa !51
  br label %24

24:                                               ; preds = %._crit_edge, %2
  ret void
}